target datalayout = "e-m:e-p270:32:32-p271:32:32-p272:64:64-i64:64-i128:128-f80:128-n8:16:32:64-S128"
target triple = "x86_64-pc-linux-gnu"

@hf_rdm_pd_real_time_clock_year = internal global i32 0, align 4
@hf_rdm_pd_real_time_clock_month = internal global i32 0, align 4
@hf_rdm_pd_real_time_clock_day = internal global i32 0, align 4
@hf_rdm_pd_real_time_clock_hour = internal global i32 0, align 4
@hf_rdm_pd_real_time_clock_minute = internal global i32 0, align 4
@hf_rdm_pd_real_time_clock_second = internal global i32 0, align 4

; Function Attrs: null_pointer_is_valid sspstrong uwtable
define internal void @rdm_proto_tree_add_numeric_item(ptr noundef %0, i32 noundef %1, ptr noundef %2, ptr noundef %3, i8 noundef zeroext %4) #1 {
  %6 = alloca ptr, align 8
  %7 = alloca i32, align 4
  %8 = alloca ptr, align 8
  %9 = alloca ptr, align 8
  %10 = alloca i8, align 1
  %11 = alloca i32, align 4
  store ptr %0, ptr %6, align 8
  store i32 %1, ptr %7, align 4
  store ptr %2, ptr %8, align 8
  store ptr %3, ptr %9, align 8
  store i8 %4, ptr %10, align 1
  call void @llvm.lifetime.start.p0(i64 4, ptr %11) #4
  %12 = load ptr, ptr %9, align 8
  %13 = load i32, ptr %12, align 4
  store i32 %13, ptr %11, align 4
  %14 = load ptr, ptr %6, align 8
  %15 = load i32, ptr %7, align 4
  %16 = load ptr, ptr %8, align 8
  %17 = load i32, ptr %11, align 4
  %18 = load i8, ptr %10, align 1
  %19 = zext i8 %18 to i32
  %20 = call ptr @proto_tree_add_item(ptr noundef %14, i32 noundef %15, ptr noundef %16, i32 noundef %17, i32 noundef %19, i32 noundef 0)
  %21 = load i8, ptr %10, align 1
  %22 = zext i8 %21 to i32
  %23 = load ptr, ptr %9, align 8
  %24 = load i32, ptr %23, align 4
  %25 = add i32 %24, %22
  store i32 %25, ptr %23, align 4
  call void @llvm.lifetime.end.p0(i64 4, ptr %11) #4
  ret void
}

; Function Attrs: null_pointer_is_valid sspstrong uwtable
define internal i32 @dissect_rdm_pd_real_time_clock(ptr noundef %0, i32 noundef %1, ptr noundef %2, i8 noundef zeroext %3, i8 noundef zeroext %4) #1 {
  %6 = alloca ptr, align 8
  %7 = alloca i32, align 4
  %8 = alloca ptr, align 8
  %9 = alloca i8, align 1
  %10 = alloca i8, align 1
  store ptr %0, ptr %6, align 8
  store i32 %1, ptr %7, align 4
  store ptr %2, ptr %8, align 8
  store i8 %3, ptr %9, align 1
  store i8 %4, ptr %10, align 1
  %11 = load i8, ptr %9, align 1
  %12 = zext i8 %11 to i32
  switch i32 %12, label %32 [
    i32 48, label %13
    i32 33, label %13
  ]

13:                                               ; preds = %5, %5
  %14 = load ptr, ptr %8, align 8
  %15 = load i32, ptr @hf_rdm_pd_real_time_clock_year, align 4
  %16 = load ptr, ptr %6, align 8
  call void @rdm_proto_tree_add_numeric_item(ptr noundef %14, i32 noundef %15, ptr noundef %16, ptr noundef %7, i8 noundef zeroext 2)
  %17 = load ptr, ptr %8, align 8
  %18 = load i32, ptr @hf_rdm_pd_real_time_clock_month, align 4
  %19 = load ptr, ptr %6, align 8
  call void @rdm_proto_tree_add_numeric_item(ptr noundef %17, i32 noundef %18, ptr noundef %19, ptr noundef %7, i8 noundef zeroext 1)
  %20 = load ptr, ptr %8, align 8
  %21 = load i32, ptr @hf_rdm_pd_real_time_clock_day, align 4
  %22 = load ptr, ptr %6, align 8
  call void @rdm_proto_tree_add_numeric_item(ptr noundef %20, i32 noundef %21, ptr noundef %22, ptr noundef %7, i8 noundef zeroext 1)
  %23 = load ptr, ptr %8, align 8
  %24 = load i32, ptr @hf_rdm_pd_real_time_clock_hour, align 4
  %25 = load ptr, ptr %6, align 8
  call void @rdm_proto_tree_add_numeric_item(ptr noundef %23, i32 noundef %24, ptr noundef %25, ptr noundef %7, i8 noundef zeroext 1)
  %26 = load ptr, ptr %8, align 8
  %27 = load i32, ptr @hf_rdm_pd_real_time_clock_minute, align 4
  %28 = load ptr, ptr %6, align 8
  call void @rdm_proto_tree_add_numeric_item(ptr noundef %26, i32 noundef %27, ptr noundef %28, ptr noundef %7, i8 noundef zeroext 1)
  %29 = load ptr, ptr %8, align 8
  %30 = load i32, ptr @hf_rdm_pd_real_time_clock_second, align 4
  %31 = load ptr, ptr %6, align 8
  call void @rdm_proto_tree_add_numeric_item(ptr noundef %29, i32 noundef %30, ptr noundef %31, ptr noundef %7, i8 noundef zeroext 1)
  br label %32

32:                                               ; preds = %5, %13
  %33 = load i32, ptr %7, align 4
  ret i32 %33
}