; Function Attrs: null_pointer_is_valid sspstrong uwtable
define internal fastcc range(i32 23, 31) i32 @dissect_rdm_pd_real_time_clock(ptr noundef %0, ptr noundef %1, i8 noundef zeroext %2) unnamed_addr #1 {
  switch i8 %2, label %17 [
    i8 48, label %4
    i8 33, label %4
  ]

4:                                                ; preds = %3, %3
  %5 = load i32, ptr @hf_rdm_pd_real_time_clock_year, align 4
  %6 = tail call ptr @proto_tree_add_item(ptr noundef %1, i32 noundef %5, ptr noundef %0, i32 noundef 23, i32 noundef 2, i32 noundef 0)
  %7 = load i32, ptr @hf_rdm_pd_real_time_clock_month, align 4
  %8 = tail call ptr @proto_tree_add_item(ptr noundef %1, i32 noundef %7, ptr noundef %0, i32 noundef 25, i32 noundef 1, i32 noundef 0)
  %9 = load i32, ptr @hf_rdm_pd_real_time_clock_day, align 4
  %10 = tail call ptr @proto_tree_add_item(ptr noundef %1, i32 noundef %9, ptr noundef %0, i32 noundef 26, i32 noundef 1, i32 noundef 0)
  %11 = load i32, ptr @hf_rdm_pd_real_time_clock_hour, align 4
  %12 = tail call ptr @proto_tree_add_item(ptr noundef %1, i32 noundef %11, ptr noundef %0, i32 noundef 27, i32 noundef 1, i32 noundef 0)
  %13 = load i32, ptr @hf_rdm_pd_real_time_clock_minute, align 4
  %14 = tail call ptr @proto_tree_add_item(ptr noundef %1, i32 noundef %13, ptr noundef %0, i32 noundef 28, i32 noundef 1, i32 noundef 0)
  %15 = load i32, ptr @hf_rdm_pd_real_time_clock_second, align 4
  %16 = tail call ptr @proto_tree_add_item(ptr noundef %1, i32 noundef %15, ptr noundef %0, i32 noundef 29, i32 noundef 1, i32 noundef 0)
  br label %17

17:                                               ; preds = %4, %3
  %.0 = phi i32 [ 23, %3 ], [ 30, %4 ]
  ret i32 %.0
}